target datalayout = "e-m:e-p270:32:32-p271:32:32-p272:64:64-i64:64-i128:128-f80:128-n8:16:32:64-S128"
target triple = "x86_64-pc-linux-gnu"

%struct.JNINativeInterface_ = type { ptr, ptr, ptr, ptr, ptr, ptr, ptr, ptr, ptr, ptr, ptr, ptr, ptr, ptr, ptr, ptr, ptr, ptr, ptr, ptr, ptr, ptr, ptr, ptr, ptr, ptr, ptr, ptr, ptr, ptr, ptr, ptr, ptr, ptr, ptr, ptr, ptr, ptr, ptr, ptr, ptr, ptr, ptr, ptr, ptr, ptr, ptr, ptr, ptr, ptr, ptr, ptr, ptr, ptr, ptr, ptr, ptr, ptr, ptr, ptr, ptr, ptr, ptr, ptr, ptr, ptr, ptr, ptr, ptr, ptr, ptr, ptr, ptr, ptr, ptr, ptr, ptr, ptr, ptr, ptr, ptr, ptr, ptr, ptr, ptr, ptr, ptr, ptr, ptr, ptr, ptr, ptr, ptr, ptr, ptr, ptr, ptr, ptr, ptr, ptr, ptr, ptr, ptr, ptr, ptr, ptr, ptr, ptr, ptr, ptr, ptr, ptr, ptr, ptr, ptr, ptr, ptr, ptr, ptr, ptr, ptr, ptr, ptr, ptr, ptr, ptr, ptr, ptr, ptr, ptr, ptr, ptr, ptr, ptr, ptr, ptr, ptr, ptr, ptr, ptr, ptr, ptr, ptr, ptr, ptr, ptr, ptr, ptr, ptr, ptr, ptr, ptr, ptr, ptr, ptr, ptr, ptr, ptr, ptr, ptr, ptr, ptr, ptr, ptr, ptr, ptr, ptr, ptr, ptr, ptr, ptr, ptr, ptr, ptr, ptr, ptr, ptr, ptr, ptr, ptr, ptr, ptr, ptr, ptr, ptr, ptr, ptr, ptr, ptr, ptr, ptr, ptr, ptr, ptr, ptr, ptr, ptr, ptr, ptr, ptr, ptr, ptr, ptr, ptr, ptr, ptr, ptr, ptr, ptr, ptr, ptr, ptr, ptr, ptr, ptr, ptr, ptr, ptr, ptr, ptr, ptr, ptr, ptr, ptr, ptr, ptr, ptr, ptr, ptr, ptr, ptr, ptr, ptr, ptr, ptr }
%struct.gss_OID_desc_struct = type { i32, ptr }

@MID_Oid_getDER = hidden global ptr null, align 8
@.str.91 = private unnamed_addr constant [27 x i8] c"java/lang/OutOfMemoryError\00", align 1

; Function Attrs: nounwind uwtable
define hidden void @gssThrowOutOfMemoryError(ptr noundef %0, ptr noundef %1) #0 {
  %3 = alloca ptr, align 8
  %4 = alloca ptr, align 8
  %5 = alloca ptr, align 8
  store ptr %0, ptr %3, align 8
  store ptr %1, ptr %4, align 8
  %6 = load ptr, ptr %3, align 8
  %7 = load ptr, ptr %6, align 8
  %8 = getelementptr inbounds %struct.JNINativeInterface_, ptr %7, i32 0, i32 6
  %9 = load ptr, ptr %8, align 8
  %10 = load ptr, ptr %3, align 8
  %11 = call ptr %9(ptr noundef %10, ptr noundef @.str.91)
  store ptr %11, ptr %5, align 8
  %12 = load ptr, ptr %5, align 8
  %13 = icmp ne ptr %12, null
  br i1 %13, label %14, label %23

14:                                               ; preds = %2
  %15 = load ptr, ptr %3, align 8
  %16 = load ptr, ptr %15, align 8
  %17 = getelementptr inbounds %struct.JNINativeInterface_, ptr %16, i32 0, i32 14
  %18 = load ptr, ptr %17, align 8
  %19 = load ptr, ptr %3, align 8
  %20 = load ptr, ptr %5, align 8
  %21 = load ptr, ptr %4, align 8
  %22 = call i32 %18(ptr noundef %19, ptr noundef %20, ptr noundef %21)
  br label %23

23:                                               ; preds = %14, %2
  ret void
}

; Function Attrs: nounwind uwtable
define hidden ptr @newGSSOID(ptr noundef %0, ptr noundef %1) #0 {
  %3 = alloca ptr, align 8
  %4 = alloca ptr, align 8
  %5 = alloca ptr, align 8
  %6 = alloca ptr, align 8
  %7 = alloca ptr, align 8
  store ptr %0, ptr %4, align 8
  store ptr %1, ptr %5, align 8
  %8 = load ptr, ptr %5, align 8
  %9 = icmp ne ptr %8, null
  br i1 %9, label %10, label %80

10:                                               ; preds = %2
  %11 = load ptr, ptr %4, align 8
  %12 = load ptr, ptr %11, align 8
  %13 = getelementptr inbounds %struct.JNINativeInterface_, ptr %12, i32 0, i32 34
  %14 = load ptr, ptr %13, align 8
  %15 = load ptr, ptr %4, align 8
  %16 = load ptr, ptr %5, align 8
  %17 = load ptr, ptr @MID_Oid_getDER, align 8
  %18 = call ptr (ptr, ptr, ptr, ...) %14(ptr noundef %15, ptr noundef %16, ptr noundef %17)
  store ptr %18, ptr %6, align 8
  %19 = load ptr, ptr %4, align 8
  %20 = load ptr, ptr %19, align 8
  %21 = getelementptr inbounds %struct.JNINativeInterface_, ptr %20, i32 0, i32 228
  %22 = load ptr, ptr %21, align 8
  %23 = load ptr, ptr %4, align 8
  %24 = call zeroext i8 %22(ptr noundef %23)
  %25 = icmp ne i8 %24, 0
  br i1 %25, label %26, label %27

26:                                               ; preds = %10
  store ptr null, ptr %3, align 8
  br label %92

27:                                               ; preds = %10
  %28 = call noalias ptr @malloc(i64 noundef 16) #6
  store ptr %28, ptr %7, align 8
  %29 = load ptr, ptr %7, align 8
  %30 = icmp eq ptr %29, null
  br i1 %30, label %31, label %33

31:                                               ; preds = %27
  %32 = load ptr, ptr %4, align 8
  call void @gssThrowOutOfMemoryError(ptr noundef %32, ptr noundef null)
  store ptr null, ptr %3, align 8
  br label %92

33:                                               ; preds = %27
  %34 = load ptr, ptr %4, align 8
  %35 = load ptr, ptr %34, align 8
  %36 = getelementptr inbounds %struct.JNINativeInterface_, ptr %35, i32 0, i32 171
  %37 = load ptr, ptr %36, align 8
  %38 = load ptr, ptr %4, align 8
  %39 = load ptr, ptr %6, align 8
  %40 = call i32 %37(ptr noundef %38, ptr noundef %39)
  %41 = sub nsw i32 %40, 2
  %42 = load ptr, ptr %7, align 8
  %43 = getelementptr inbounds %struct.gss_OID_desc_struct, ptr %42, i32 0, i32 0
  store i32 %41, ptr %43, align 8
  %44 = load ptr, ptr %7, align 8
  %45 = getelementptr inbounds %struct.gss_OID_desc_struct, ptr %44, i32 0, i32 0
  %46 = load i32, ptr %45, align 8
  %47 = zext i32 %46 to i64
  %48 = call noalias ptr @malloc(i64 noundef %47) #6
  %49 = load ptr, ptr %7, align 8
  %50 = getelementptr inbounds %struct.gss_OID_desc_struct, ptr %49, i32 0, i32 1
  store ptr %48, ptr %50, align 8
  %51 = load ptr, ptr %7, align 8
  %52 = getelementptr inbounds %struct.gss_OID_desc_struct, ptr %51, i32 0, i32 1
  %53 = load ptr, ptr %52, align 8
  %54 = icmp eq ptr %53, null
  br i1 %54, label %55, label %57

55:                                               ; preds = %33
  %56 = load ptr, ptr %4, align 8
  call void @gssThrowOutOfMemoryError(ptr noundef %56, ptr noundef null)
  br label %81

57:                                               ; preds = %33
  %58 = load ptr, ptr %4, align 8
  %59 = load ptr, ptr %58, align 8
  %60 = getelementptr inbounds %struct.JNINativeInterface_, ptr %59, i32 0, i32 200
  %61 = load ptr, ptr %60, align 8
  %62 = load ptr, ptr %4, align 8
  %63 = load ptr, ptr %6, align 8
  %64 = load ptr, ptr %7, align 8
  %65 = getelementptr inbounds %struct.gss_OID_desc_struct, ptr %64, i32 0, i32 0
  %66 = load i32, ptr %65, align 8
  %67 = load ptr, ptr %7, align 8
  %68 = getelementptr inbounds %struct.gss_OID_desc_struct, ptr %67, i32 0, i32 1
  %69 = load ptr, ptr %68, align 8
  call void %61(ptr noundef %62, ptr noundef %63, i32 noundef 2, i32 noundef %66, ptr noundef %69)
  %70 = load ptr, ptr %4, align 8
  %71 = load ptr, ptr %70, align 8
  %72 = getelementptr inbounds %struct.JNINativeInterface_, ptr %71, i32 0, i32 228
  %73 = load ptr, ptr %72, align 8
  %74 = load ptr, ptr %4, align 8
  %75 = call zeroext i8 %73(ptr noundef %74)
  %76 = icmp ne i8 %75, 0
  br i1 %76, label %77, label %78

77:                                               ; preds = %57
  br label %81

78:                                               ; preds = %57
  %79 = load ptr, ptr %7, align 8
  store ptr %79, ptr %3, align 8
  br label %92

80:                                               ; preds = %2
  store ptr null, ptr %3, align 8
  br label %92

81:                                               ; preds = %77, %55
  %82 = load ptr, ptr %4, align 8
  %83 = load ptr, ptr %82, align 8
  %84 = getelementptr inbounds %struct.JNINativeInterface_, ptr %83, i32 0, i32 23
  %85 = load ptr, ptr %84, align 8
  %86 = load ptr, ptr %4, align 8
  %87 = load ptr, ptr %6, align 8
  call void %85(ptr noundef %86, ptr noundef %87)
  %88 = load ptr, ptr %7, align 8
  %89 = getelementptr inbounds %struct.gss_OID_desc_struct, ptr %88, i32 0, i32 1
  %90 = load ptr, ptr %89, align 8
  call void @free(ptr noundef %90) #5
  %91 = load ptr, ptr %7, align 8
  call void @free(ptr noundef %91) #5
  store ptr null, ptr %3, align 8
  br label %92

92:                                               ; preds = %81, %80, %78, %31, %26
  %93 = load ptr, ptr %3, align 8
  ret ptr %93
}