; Function Attrs: nounwind uwtable
define hidden noundef ptr @newGSSOID(ptr noundef %0, ptr noundef %1) local_unnamed_addr #0 {
  %.not = icmp eq ptr %1, null
  br i1 %.not, label %gssThrowOutOfMemoryError.exit, label %3

3:                                                ; preds = %2
  %4 = load ptr, ptr %0, align 8
  %5 = getelementptr inbounds i8, ptr %4, i64 272
  %6 = load ptr, ptr %5, align 8
  %7 = load ptr, ptr @MID_Oid_getDER, align 8
  %8 = tail call ptr (ptr, ptr, ptr, ...) %6(ptr noundef nonnull %0, ptr noundef nonnull %1, ptr noundef %7) #12
  %9 = load ptr, ptr %0, align 8
  %10 = getelementptr inbounds i8, ptr %9, i64 1824
  %11 = load ptr, ptr %10, align 8
  %12 = tail call zeroext i8 %11(ptr noundef nonnull %0) #12
  %.not33 = icmp eq i8 %12, 0
  br i1 %.not33, label %13, label %gssThrowOutOfMemoryError.exit

13:                                               ; preds = %3
  %14 = tail call noalias dereferenceable_or_null(16) ptr @malloc(i64 noundef 16) #15
  %15 = icmp eq ptr %14, null
  %16 = load ptr, ptr %0, align 8
  br i1 %15, label %17, label %26

17:                                               ; preds = %13
  %18 = getelementptr inbounds i8, ptr %16, i64 48
  %19 = load ptr, ptr %18, align 8
  %20 = tail call ptr %19(ptr noundef nonnull %0, ptr noundef nonnull @.str.91) #12
  %.not.i = icmp eq ptr %20, null
  br i1 %.not.i, label %gssThrowOutOfMemoryError.exit, label %21

21:                                               ; preds = %17
  %22 = load ptr, ptr %0, align 8
  %23 = getelementptr inbounds i8, ptr %22, i64 112
  %24 = load ptr, ptr %23, align 8
  %25 = tail call i32 %24(ptr noundef nonnull %0, ptr noundef nonnull %20, ptr noundef null) #12
  br label %gssThrowOutOfMemoryError.exit

26:                                               ; preds = %13
  %27 = getelementptr inbounds i8, ptr %16, i64 1368
  %28 = load ptr, ptr %27, align 8
  %29 = tail call i32 %28(ptr noundef nonnull %0, ptr noundef %8) #12
  %30 = add nsw i32 %29, -2
  store i32 %30, ptr %14, align 8
  %31 = zext i32 %30 to i64
  %32 = tail call noalias ptr @malloc(i64 noundef %31) #15
  %33 = getelementptr inbounds i8, ptr %14, i64 8
  store ptr %32, ptr %33, align 8
  %34 = icmp eq ptr %32, null
  %35 = load ptr, ptr %0, align 8
  br i1 %34, label %36, label %45

36:                                               ; preds = %26
  %37 = getelementptr inbounds i8, ptr %35, i64 48
  %38 = load ptr, ptr %37, align 8
  %39 = tail call ptr %38(ptr noundef nonnull %0, ptr noundef nonnull @.str.91) #12
  %.not.i35 = icmp eq ptr %39, null
  br i1 %.not.i35, label %gssThrowOutOfMemoryError.exit36, label %40

40:                                               ; preds = %36
  %41 = load ptr, ptr %0, align 8
  %42 = getelementptr inbounds i8, ptr %41, i64 112
  %43 = load ptr, ptr %42, align 8
  %44 = tail call i32 %43(ptr noundef nonnull %0, ptr noundef nonnull %39, ptr noundef null) #12
  br label %gssThrowOutOfMemoryError.exit36

45:                                               ; preds = %26
  %46 = getelementptr inbounds i8, ptr %35, i64 1600
  %47 = load ptr, ptr %46, align 8
  tail call void %47(ptr noundef nonnull %0, ptr noundef %8, i32 noundef 2, i32 noundef %30, ptr noundef nonnull %32) #12
  %48 = load ptr, ptr %0, align 8
  %49 = getelementptr inbounds i8, ptr %48, i64 1824
  %50 = load ptr, ptr %49, align 8
  %51 = tail call zeroext i8 %50(ptr noundef nonnull %0) #12
  %.not34 = icmp eq i8 %51, 0
  br i1 %.not34, label %gssThrowOutOfMemoryError.exit, label %gssThrowOutOfMemoryError.exit36

gssThrowOutOfMemoryError.exit36:                  ; preds = %40, %36, %45
  %52 = load ptr, ptr %0, align 8
  %53 = getelementptr inbounds i8, ptr %52, i64 184
  %54 = load ptr, ptr %53, align 8
  tail call void %54(ptr noundef nonnull %0, ptr noundef %8) #12
  tail call void @free(ptr noundef %32) #12
  tail call void @free(ptr noundef nonnull %14) #12
  br label %gssThrowOutOfMemoryError.exit

gssThrowOutOfMemoryError.exit:                    ; preds = %21, %17, %2, %45, %3, %gssThrowOutOfMemoryError.exit36
  %.0 = phi ptr [ null, %gssThrowOutOfMemoryError.exit36 ], [ null, %3 ], [ %14, %45 ], [ null, %2 ], [ null, %17 ], [ null, %21 ]
  ret ptr %.0
}